; Function Attrs: mustprogress uwtable
define internal void @_ZNK19OpenColorIO_v2_5dev12_GLOBAL__N_15CDLOp20extractGpuShaderInfoERSt10shared_ptrINS_16GpuShaderCreatorEE(ptr noundef nonnull readonly align 8 captures(none) dereferenceable(24) %0, ptr noundef nonnull align 8 dereferenceable(16) %1) unnamed_addr #3 align 2 personality ptr @__gxx_personality_v0 {
  %3 = alloca %"class.std::shared_ptr.26", align 8
  call void @llvm.lifetime.start.p0(i64 16, ptr nonnull %3) #23
  %4 = getelementptr inbounds nuw i8, ptr %0, i64 8
  %.val = load ptr, ptr %4, align 8, !tbaa !31, !noalias !71
  %5 = getelementptr inbounds nuw i8, ptr %0, i64 16
  %.val3 = load ptr, ptr %5, align 8, !tbaa !23, !noalias !71
  call fastcc void @_ZNK19OpenColorIO_v2_5dev12_GLOBAL__N_15CDLOp7cdlDataEv(ptr dead_on_unwind noalias writable align 8 %3, ptr %.val, ptr %.val3)
  invoke void @_ZN19OpenColorIO_v2_5dev22GetCDLGPUShaderProgramERSt10shared_ptrINS_16GpuShaderCreatorEERS0_IKNS_9CDLOpDataEE(ptr noundef nonnull align 8 dereferenceable(16) %1, ptr noundef nonnull align 8 dereferenceable(16) %3)
          to label %6 unwind label %30

6:                                                ; preds = %2
  %7 = getelementptr inbounds nuw i8, ptr %3, i64 8
  %8 = load ptr, ptr %7, align 8, !tbaa !23
  %.not.i.i = icmp eq ptr %8, null
  br i1 %.not.i.i, label %_ZNSt12__shared_ptrIKN19OpenColorIO_v2_5dev9CDLOpDataELN9__gnu_cxx12_Lock_policyE2EED2Ev.exit, label %9

9:                                                ; preds = %6
  %10 = getelementptr inbounds nuw i8, ptr %8, i64 8
  %11 = load atomic i64, ptr %10 acquire, align 8
  %12 = icmp eq i64 %11, 4294967297
  %13 = trunc i64 %11 to i32
  br i1 %12, label %14, label %22

14:                                               ; preds = %9
  store i32 0, ptr %10, align 8, !tbaa !17
  %15 = getelementptr inbounds nuw i8, ptr %8, i64 12
  store i32 0, ptr %15, align 4, !tbaa !20
  %16 = load ptr, ptr %8, align 8, !tbaa !15
  %17 = getelementptr inbounds nuw i8, ptr %16, i64 16
  %18 = load ptr, ptr %17, align 8
  call void %18(ptr noundef nonnull align 8 dereferenceable(16) %8) #23
  %19 = load ptr, ptr %8, align 8, !tbaa !15
  %20 = getelementptr inbounds nuw i8, ptr %19, i64 24
  %21 = load ptr, ptr %20, align 8
  call void %21(ptr noundef nonnull align 8 dereferenceable(16) %8) #23
  br label %_ZNSt12__shared_ptrIKN19OpenColorIO_v2_5dev9CDLOpDataELN9__gnu_cxx12_Lock_policyE2EED2Ev.exit

22:                                               ; preds = %9
  %23 = load i8, ptr @__libc_single_threaded, align 1, !tbaa !24
  %.not.i.i.i = icmp eq i8 %23, 0
  br i1 %.not.i.i.i, label %26, label %24

24:                                               ; preds = %22
  %25 = add nsw i32 %13, -1
  store i32 %25, ptr %10, align 4, !tbaa !25
  br label %_ZN9__gnu_cxx27__exchange_and_add_dispatchEPii.exit.i.i.i

26:                                               ; preds = %22
  %27 = atomicrmw volatile add ptr %10, i32 -1 acq_rel, align 4
  br label %_ZN9__gnu_cxx27__exchange_and_add_dispatchEPii.exit.i.i.i

_ZN9__gnu_cxx27__exchange_and_add_dispatchEPii.exit.i.i.i: ; preds = %26, %24
  %.0.i.i.i.i = phi i32 [ %13, %24 ], [ %27, %26 ]
  %28 = icmp eq i32 %.0.i.i.i.i, 1
  br i1 %28, label %29, label %_ZNSt12__shared_ptrIKN19OpenColorIO_v2_5dev9CDLOpDataELN9__gnu_cxx12_Lock_policyE2EED2Ev.exit, !prof !26

29:                                               ; preds = %_ZN9__gnu_cxx27__exchange_and_add_dispatchEPii.exit.i.i.i
  call void @_ZNSt16_Sp_counted_baseILN9__gnu_cxx12_Lock_policyE2EE24_M_release_last_use_coldEv(ptr noundef nonnull align 8 dereferenceable(16) %8) #23
  br label %_ZNSt12__shared_ptrIKN19OpenColorIO_v2_5dev9CDLOpDataELN9__gnu_cxx12_Lock_policyE2EED2Ev.exit

_ZNSt12__shared_ptrIKN19OpenColorIO_v2_5dev9CDLOpDataELN9__gnu_cxx12_Lock_policyE2EED2Ev.exit: ; preds = %6, %14, %_ZN9__gnu_cxx27__exchange_and_add_dispatchEPii.exit.i.i.i, %29
  call void @llvm.lifetime.end.p0(i64 16, ptr nonnull %3) #23
  ret void

30:                                               ; preds = %2
  %31 = landingpad { ptr, i32 }
          cleanup
  call void @_ZNSt12__shared_ptrIKN19OpenColorIO_v2_5dev9CDLOpDataELN9__gnu_cxx12_Lock_policyE2EED2Ev(ptr noundef nonnull align 8 dereferenceable(16) %3) #23
  call void @llvm.lifetime.end.p0(i64 16, ptr nonnull %3) #23
  resume { ptr, i32 } %31
}